target datalayout = "e-m:e-p270:32:32-p271:32:32-p272:64:64-i64:64-i128:128-f80:128-n8:16:32:64-S128"
target triple = "x86_64-pc-linux-gnu"

%struct._cmsLogErrorChunkType = type { ptr }

; Function Attrs: nounwind uwtable
define hidden void @cmsSetLogErrorHandlerTHR(ptr noundef %0, ptr noundef %1) #0 {
  %3 = alloca ptr, align 8
  %4 = alloca ptr, align 8
  %5 = alloca ptr, align 8
  store ptr %0, ptr %3, align 8
  store ptr %1, ptr %4, align 8
  %6 = load ptr, ptr %3, align 8
  %7 = call ptr @_cmsContextGetClientChunk(ptr noundef %6, i32 noundef 1)
  store ptr %7, ptr %5, align 8
  %8 = load ptr, ptr %5, align 8
  %9 = icmp ne ptr %8, null
  br i1 %9, label %10, label %21

10:                                               ; preds = %2
  %11 = load ptr, ptr %4, align 8
  %12 = icmp eq ptr %11, null
  br i1 %12, label %13, label %16

13:                                               ; preds = %10
  %14 = load ptr, ptr %5, align 8
  %15 = getelementptr inbounds %struct._cmsLogErrorChunkType, ptr %14, i32 0, i32 0
  store ptr @DefaultLogErrorHandlerFunction, ptr %15, align 8
  br label %20

16:                                               ; preds = %10
  %17 = load ptr, ptr %4, align 8
  %18 = load ptr, ptr %5, align 8
  %19 = getelementptr inbounds %struct._cmsLogErrorChunkType, ptr %18, i32 0, i32 0
  store ptr %17, ptr %19, align 8
  br label %20

20:                                               ; preds = %16, %13
  br label %21

21:                                               ; preds = %20, %2
  ret void
}