; Function Attrs: nounwind uwtable
define hidden void @cmsSetLogErrorHandlerTHR(ptr noundef %0, ptr noundef %1) local_unnamed_addr #6 {
  %3 = tail call ptr @_cmsContextGetClientChunk(ptr noundef %0, i32 noundef 1) #20
  %.not = icmp eq ptr %3, null
  br i1 %.not, label %5, label %.sink.split

.sink.split:                                      ; preds = %2
  %4 = icmp eq ptr %1, null
  %DefaultLogErrorHandlerFunction. = select i1 %4, ptr @DefaultLogErrorHandlerFunction, ptr %1
  store ptr %DefaultLogErrorHandlerFunction., ptr %3, align 8
  br label %5

5:                                                ; preds = %.sink.split, %2
  ret void
}